target datalayout = "e-m:e-p270:32:32-p271:32:32-p272:64:64-i64:64-i128:128-f80:128-n8:16:32:64-S128"
target triple = "x86_64-pc-linux-gnu"

%struct.redisServer = type { i32, i64, ptr, ptr, ptr, i32, i32, i32, i32, i32, ptr, ptr, ptr, ptr, ptr, i32, i32, i32, i32, i64, i32, i32, i32, i32, ptr, i32, i32, [41 x i8], i32, i64, i32, i32, i32, ptr, ptr, i32, i32, i64, ptr, ptr, ptr, ptr, [2 x i32], i32, i32, i32, i32, i32, i32, [16 x ptr], i32, ptr, ptr, i32, [8 x %struct.connListener], i32, %struct.connListener, ptr, ptr, ptr, ptr, ptr, ptr, ptr, ptr, ptr, ptr, i32, ptr, i32, ptr, [3 x %struct.pause_event], [256 x i8], ptr, i64, i32, i32, [128 x i32], i32, i32, i64, i32, i32, i32, i32, i32, i64, i64, i64, i64, i64, i64, i64, i64, i64, i64, double, i64, i64, i64, i64, i64, i64, i64, i64, i64, i64, i64, i64, i64, i64, i64, i64, i64, i64, i64, i64, i64, double, i64, i64, i64, i64, i64, ptr, i64, i64, i64, %struct.malloc_stats, i64, i64, i64, i64, i64, i64, i64, i64, i64, i64, i64, i64, double, [4 x i64], i64, i64, i64, i64, [128 x i64], [128 x i64], i64, i64, [7 x %struct.anon], i64, i64, i64, i64, i64, i64, [4 x %struct.durationStats], i32, i32, i32, i32, i32, i32, i32, i32, i32, i32, i32, i32, i64, i32, i32, i32, i32, i64, i64, i32, i32, i32, i32, i32, ptr, [3 x %struct.clientBufferLimitsConfig], i32, i32, i32, ptr, i32, i32, i32, i32, i32, i32, ptr, ptr, i32, i32, i64, i64, i64, i64, i64, i32, i32, ptr, i32, i32, i64, i64, i64, i64, i64, i32, i32, i64, i32, i32, i32, i32, i32, i32, i32, i32, ptr, i32, i64, i64, i64, i64, i32, ptr, i32, ptr, i32, i32, i32, i64, i64, i64, i64, i32, i32, i32, i32, i32, i32, ptr, i32, i32, ptr, i32, i32, i32, [2 x i32], i32, %struct.redisOpArray, i32, ptr, i32, ptr, i32, i32, i32, i32, i32, i32, i32, [41 x i8], [41 x i8], i64, i64, i64, i64, i32, i32, ptr, i64, i64, %struct.replDataBuf, i64, i64, i32, i32, i32, i32, i32, i32, i32, i32, i32, i64, ptr, i64, ptr, ptr, ptr, i32, i32, ptr, ptr, i32, i32, i32, i64, i64, i64, i64, ptr, ptr, i32, ptr, i64, i32, i32, i32, i64, i32, i32, i32, i32, ptr, i32, i32, [41 x i8], i64, i32, ptr, i32, i32, i64, i64, i32, i32, i32, i32, i32, i64, [3 x i32], i32, i32, i32, [10 x i32], ptr, ptr, i32, i64, ptr, ptr, i32, i32, i32, i32, i64, i64, i64, i64, i64, i64, i64, i64, i64, i64, i32, i32, i64, i64, i32, i64, i64, i64, i64, i64, ptr, ptr, i32, ptr, i32, i32, i32, i32, i64, i64, ptr, ptr, i32, i32, i32, i32, i32, ptr, ptr, ptr, i32, i32, i32, i32, i32, i32, i32, i64, i32, i32, i64, i32, i32, i32, i32, i32, i32, i32, i64, ptr, ptr, i64, ptr, i32, %struct.aclInfo, i32, i64, i32, i32, i32, %struct.redisTLSContextConfig, ptr, ptr, ptr, ptr, ptr, i64, i32, ptr, i32, i32, i32, i64, i32, ptr }
%struct.connListener = type { [16 x i32], i32, ptr, i32, i32, ptr, ptr }
%struct.pause_event = type { i32, i64 }
%struct.malloc_stats = type { i64, i64, i64, i64, i64, i64, i64, i64, i64, i64, i64 }
%struct.anon = type { i64, i64, [16 x i64], i32 }
%struct.durationStats = type { i64, i64, i64 }
%struct.clientBufferLimitsConfig = type { i64, i64, i64 }
%struct.redisOpArray = type { ptr, i32, i32 }
%struct.replDataBuf = type { ptr, i64, i64, i64, i64 }
%struct.aclInfo = type { i64, i64, i64, i64 }
%struct.redisTLSContextConfig = type { ptr, ptr, ptr, ptr, ptr, ptr, ptr, ptr, ptr, ptr, ptr, ptr, i32, i32, i32, i32 }
%struct.listNode = type { ptr, ptr, ptr }
%struct.listIter = type { ptr, i32 }

@server = external global %struct.redisServer, align 8

; Function Attrs: nounwind uwtable
define dso_local void @unblockPostponedClients() #0 {
  %1 = alloca ptr, align 8
  %2 = alloca %struct.listIter, align 8
  %3 = alloca ptr, align 8
  call void @llvm.lifetime.start.p0(i64 8, ptr %1) #16
  call void @llvm.lifetime.start.p0(i64 16, ptr %2) #16
  %4 = load ptr, ptr getelementptr inbounds nuw (%struct.redisServer, ptr @server, i32 0, i32 70), align 8, !tbaa !315
  call void @listRewind(ptr noundef %4, ptr noundef %2)
  br label %5

5:                                                ; preds = %8, %0
  %6 = call ptr @listNext(ptr noundef %2)
  store ptr %6, ptr %1, align 8, !tbaa !167
  %7 = icmp ne ptr %6, null
  br i1 %7, label %8, label %13

8:                                                ; preds = %5
  call void @llvm.lifetime.start.p0(i64 8, ptr %3) #16
  %9 = load ptr, ptr %1, align 8, !tbaa !167
  %10 = getelementptr inbounds nuw %struct.listNode, ptr %9, i32 0, i32 2
  %11 = load ptr, ptr %10, align 8, !tbaa !168
  store ptr %11, ptr %3, align 8, !tbaa !24
  %12 = load ptr, ptr %3, align 8, !tbaa !24
  call void @unblockClient(ptr noundef %12, i32 noundef 1)
  call void @llvm.lifetime.end.p0(i64 8, ptr %3) #16
  br label %5, !llvm.loop !316

13:                                               ; preds = %5
  call void @llvm.lifetime.end.p0(i64 16, ptr %2) #16
  call void @llvm.lifetime.end.p0(i64 8, ptr %1) #16
  ret void
}

; Function Attrs: nounwind uwtable
define dso_local void @updatePausedActions() #0 {
  %1 = alloca i32, align 4
  %2 = alloca i32, align 4
  %3 = alloca ptr, align 8
  %4 = alloca i32, align 4
  call void @llvm.lifetime.start.p0(i64 4, ptr %1) #16
  %5 = load i32, ptr getelementptr inbounds nuw (%struct.redisServer, ptr @server, i32 0, i32 69), align 8, !tbaa !312
  store i32 %5, ptr %1, align 4, !tbaa !19
  store i32 0, ptr getelementptr inbounds nuw (%struct.redisServer, ptr @server, i32 0, i32 69), align 8, !tbaa !312
  call void @llvm.lifetime.start.p0(i64 4, ptr %2) #16
  store i32 0, ptr %2, align 4, !tbaa !19
  br label %6

6:                                                ; preds = %31, %0
  %7 = load i32, ptr %2, align 4, !tbaa !19
  %8 = icmp slt i32 %7, 3
  br i1 %8, label %10, label %9

9:                                                ; preds = %6
  call void @llvm.lifetime.end.p0(i64 4, ptr %2) #16
  br label %34

10:                                               ; preds = %6
  call void @llvm.lifetime.start.p0(i64 8, ptr %3) #16
  %11 = load i32, ptr %2, align 4, !tbaa !19
  %12 = sext i32 %11 to i64
  %13 = getelementptr inbounds [3 x %struct.pause_event], ptr getelementptr inbounds nuw (%struct.redisServer, ptr @server, i32 0, i32 71), i64 0, i64 %12
  store ptr %13, ptr %3, align 8, !tbaa !10
  %14 = load ptr, ptr %3, align 8, !tbaa !10
  %15 = getelementptr inbounds nuw %struct.pause_event, ptr %14, i32 0, i32 1
  %16 = load i64, ptr %15, align 8, !tbaa !293
  %17 = load i64, ptr getelementptr inbounds nuw (%struct.redisServer, ptr @server, i32 0, i32 369), align 8, !tbaa !313
  %18 = icmp sgt i64 %16, %17
  br i1 %18, label %19, label %25

19:                                               ; preds = %10
  %20 = load ptr, ptr %3, align 8, !tbaa !10
  %21 = getelementptr inbounds nuw %struct.pause_event, ptr %20, i32 0, i32 0
  %22 = load i32, ptr %21, align 8, !tbaa !295
  %23 = load i32, ptr getelementptr inbounds nuw (%struct.redisServer, ptr @server, i32 0, i32 69), align 8, !tbaa !312
  %24 = or i32 %23, %22
  store i32 %24, ptr getelementptr inbounds nuw (%struct.redisServer, ptr @server, i32 0, i32 69), align 8, !tbaa !312
  br label %30

25:                                               ; preds = %10
  %26 = load ptr, ptr %3, align 8, !tbaa !10
  %27 = getelementptr inbounds nuw %struct.pause_event, ptr %26, i32 0, i32 0
  store i32 0, ptr %27, align 8, !tbaa !295
  %28 = load ptr, ptr %3, align 8, !tbaa !10
  %29 = getelementptr inbounds nuw %struct.pause_event, ptr %28, i32 0, i32 1
  store i64 0, ptr %29, align 8, !tbaa !293
  br label %30

30:                                               ; preds = %25, %19
  call void @llvm.lifetime.end.p0(i64 8, ptr %3) #16
  br label %31

31:                                               ; preds = %30
  %32 = load i32, ptr %2, align 4, !tbaa !19
  %33 = add nsw i32 %32, 1
  store i32 %33, ptr %2, align 4, !tbaa !19
  br label %6, !llvm.loop !314

34:                                               ; preds = %9
  call void @llvm.lifetime.start.p0(i64 4, ptr %4) #16
  store i32 3, ptr %4, align 4, !tbaa !19
  %35 = load i32, ptr getelementptr inbounds nuw (%struct.redisServer, ptr @server, i32 0, i32 69), align 8, !tbaa !312
  %36 = load i32, ptr %4, align 4, !tbaa !19
  %37 = and i32 %35, %36
  %38 = load i32, ptr %1, align 4, !tbaa !19
  %39 = load i32, ptr %4, align 4, !tbaa !19
  %40 = and i32 %38, %39
  %41 = icmp ult i32 %37, %40
  br i1 %41, label %42, label %43

42:                                               ; preds = %34
  call void @unblockPostponedClients()
  br label %43

43:                                               ; preds = %42, %34
  call void @llvm.lifetime.end.p0(i64 4, ptr %4) #16
  call void @llvm.lifetime.end.p0(i64 4, ptr %1) #16
  ret void
}