; Function Attrs: nounwind uwtable
define dso_local void @updatePausedActions() local_unnamed_addr #0 {
  %1 = alloca %struct.listIter, align 8
  %2 = load i32, ptr getelementptr inbounds nuw (i8, ptr @server, i64 1528), align 8, !tbaa !269
  store i32 0, ptr getelementptr inbounds nuw (i8, ptr @server, i64 1528), align 8, !tbaa !269
  %3 = load i64, ptr getelementptr inbounds nuw (i8, ptr @server, i64 7808), align 8, !tbaa !270
  br label %8

4:                                                ; preds = %18
  %5 = and i32 %19, 3
  %6 = and i32 %2, 3
  %7 = icmp samesign ult i32 %5, %6
  br i1 %7, label %20, label %27

8:                                                ; preds = %0, %18
  %indvars.iv = phi i64 [ 0, %0 ], [ %indvars.iv.next, %18 ]
  %9 = phi i32 [ 0, %0 ], [ %19, %18 ]
  %10 = getelementptr inbounds nuw [3 x %struct.pause_event], ptr getelementptr inbounds nuw (i8, ptr @server, i64 1544), i64 0, i64 %indvars.iv
  %11 = getelementptr inbounds nuw i8, ptr %10, i64 8
  %12 = load i64, ptr %11, align 8, !tbaa !244
  %13 = icmp sgt i64 %12, %3
  br i1 %13, label %14, label %17

14:                                               ; preds = %8
  %15 = load i32, ptr %10, align 8, !tbaa !246
  %16 = or i32 %9, %15
  store i32 %16, ptr getelementptr inbounds nuw (i8, ptr @server, i64 1528), align 8, !tbaa !269
  br label %18

17:                                               ; preds = %8
  store i32 0, ptr %10, align 8, !tbaa !246
  store i64 0, ptr %11, align 8, !tbaa !244
  br label %18

18:                                               ; preds = %17, %14
  %19 = phi i32 [ %9, %17 ], [ %16, %14 ]
  %indvars.iv.next = add nuw nsw i64 %indvars.iv, 1
  %exitcond.not = icmp eq i64 %indvars.iv.next, 3
  br i1 %exitcond.not, label %4, label %8, !llvm.loop !271

20:                                               ; preds = %4
  call void @llvm.lifetime.start.p0(i64 16, ptr nonnull %1) #26
  %21 = load ptr, ptr getelementptr inbounds nuw (i8, ptr @server, i64 1536), align 8, !tbaa !272
  call void @listRewind(ptr noundef %21, ptr noundef nonnull %1) #26
  %22 = call ptr @listNext(ptr noundef nonnull %1) #26
  %.not2.i = icmp eq ptr %22, null
  br i1 %.not2.i, label %unblockPostponedClients.exit, label %.lr.ph.i

.lr.ph.i:                                         ; preds = %20, %.lr.ph.i
  %23 = phi ptr [ %26, %.lr.ph.i ], [ %22, %20 ]
  %24 = getelementptr inbounds nuw i8, ptr %23, i64 16
  %25 = load ptr, ptr %24, align 8, !tbaa !123
  call void @unblockClient(ptr noundef %25, i32 noundef 1) #26
  %26 = call ptr @listNext(ptr noundef nonnull %1) #26
  %.not.i = icmp eq ptr %26, null
  br i1 %.not.i, label %unblockPostponedClients.exit, label %.lr.ph.i, !llvm.loop !273

unblockPostponedClients.exit:                     ; preds = %.lr.ph.i, %20
  call void @llvm.lifetime.end.p0(i64 16, ptr nonnull %1) #26
  br label %27

27:                                               ; preds = %unblockPostponedClients.exit, %4
  ret void
}